; ModuleID = '51/476.c'
source_filename = "51/476.c"
target datalayout = "e-m:e-p270:32:32-p271:32:32-p272:64:64-i64:64-f80:128-n8:16:32:64-S128"
target triple = "x86_64-pc-linux-gnu"

@.str = private unnamed_addr constant [4 x i8] c"%d\0A\00", align 1
@.str.1 = private unnamed_addr constant [3 x i8] c"NO\00", align 1

; Function Attrs: noinline nounwind uwtable
define dso_local i32 @main() #0 {
  %1 = alloca i32, align 4
  %2 = alloca i32, align 4
  %3 = alloca i32, align 4
  %4 = alloca i32, align 4
  %5 = alloca i32, align 4
  %6 = alloca i32, align 4
  %7 = alloca i32, align 4
  %8 = alloca i32, align 4
  %9 = alloca i32, align 4
  %10 = alloca i32, align 4
  %11 = alloca [501 x i32], align 16
  %12 = alloca [501 x i8], align 16
  %13 = alloca [501 x [5 x i8]], align 16
  %14 = alloca [5 x i8], align 1
  store i32 0, i32* %1, align 4
  store i32 0, i32* %5, align 4
  store i32 0, i32* %10, align 4
  %15 = bitcast [501 x i32]* %11 to i8*
  call void @llvm.memset.p0i8.i64(i8* align 16 %15, i8 0, i64 2004, i1 false)
  %16 = bitcast [501 x [5 x i8]]* %13 to i8*
  call void @llvm.memset.p0i8.i64(i8* align 16 %16, i8 0, i64 2505, i1 false)
  %17 = call i32 (i8*, ...) @__isoc99_scanf(i8* getelementptr inbounds ([4 x i8], [4 x i8]* @.str, i64 0, i64 0), i32* %2)
  %18 = getelementptr inbounds [501 x i8], [501 x i8]* %12, i64 0, i64 0
  %19 = call i32 (i8*, ...) bitcast (i32 (...)* @gets to i32 (i8*, ...)*)(i8* %18)
  %20 = getelementptr inbounds [501 x i8], [501 x i8]* %12, i64 0, i64 0
  %21 = call i64 @strlen(i8* %20) #5
  %22 = trunc i64 %21 to i32
  store i32 %22, i32* %7, align 4
  store i32 0, i32* %8, align 4
  br label %23

23:                                               ; preds = %104, %0
  %24 = load i32, i32* %8, align 4
  %25 = load i32, i32* %7, align 4
  %26 = load i32, i32* %2, align 4
  %27 = sub nsw i32 %25, %26
  %28 = icmp sle i32 %24, %27
  br i1 %28, label %29, label %107

29:                                               ; preds = %23
  store i32 0, i32* %3, align 4
  br label %30

30:                                               ; preds = %37, %29
  %31 = load i32, i32* %3, align 4
  %32 = icmp slt i32 %31, 5
  br i1 %32, label %33, label %40

33:                                               ; preds = %30
  %34 = load i32, i32* %3, align 4
  %35 = sext i32 %34 to i64
  %36 = getelementptr inbounds [5 x i8], [5 x i8]* %14, i64 0, i64 %35
  store i8 0, i8* %36, align 1
  br label %37

37:                                               ; preds = %33
  %38 = load i32, i32* %3, align 4
  %39 = add nsw i32 %38, 1
  store i32 %39, i32* %3, align 4
  br label %30

40:                                               ; preds = %30
  store i32 0, i32* %6, align 4
  %41 = load i32, i32* %8, align 4
  %42 = load i32, i32* %2, align 4
  %43 = add nsw i32 %41, %42
  %44 = sub nsw i32 %43, 1
  store i32 %44, i32* %9, align 4
  store i32 0, i32* %4, align 4
  %45 = load i32, i32* %8, align 4
  store i32 %45, i32* %3, align 4
  br label %46

46:                                               ; preds = %60, %40
  %47 = load i32, i32* %3, align 4
  %48 = load i32, i32* %9, align 4
  %49 = icmp sle i32 %47, %48
  br i1 %49, label %50, label %63

50:                                               ; preds = %46
  %51 = load i32, i32* %3, align 4
  %52 = sext i32 %51 to i64
  %53 = getelementptr inbounds [501 x i8], [501 x i8]* %12, i64 0, i64 %52
  %54 = load i8, i8* %53, align 1
  %55 = load i32, i32* %4, align 4
  %56 = sext i32 %55 to i64
  %57 = getelementptr inbounds [5 x i8], [5 x i8]* %14, i64 0, i64 %56
  store i8 %54, i8* %57, align 1
  %58 = load i32, i32* %4, align 4
  %59 = add nsw i32 %58, 1
  store i32 %59, i32* %4, align 4
  br label %60

60:                                               ; preds = %50
  %61 = load i32, i32* %3, align 4
  %62 = add nsw i32 %61, 1
  store i32 %62, i32* %3, align 4
  br label %46

63:                                               ; preds = %46
  store i32 0, i32* %3, align 4
  br label %64

64:                                               ; preds = %83, %63
  %65 = load i32, i32* %3, align 4
  %66 = load i32, i32* %5, align 4
  %67 = icmp sle i32 %65, %66
  br i1 %67, label %68, label %86

68:                                               ; preds = %64
  %69 = getelementptr inbounds [5 x i8], [5 x i8]* %14, i64 0, i64 0
  %70 = load i32, i32* %3, align 4
  %71 = sext i32 %70 to i64
  %72 = getelementptr inbounds [501 x [5 x i8]], [501 x [5 x i8]]* %13, i64 0, i64 %71
  %73 = getelementptr inbounds [5 x i8], [5 x i8]* %72, i64 0, i64 0
  %74 = call i32 @strcmp(i8* %69, i8* %73) #5
  %75 = icmp eq i32 %74, 0
  br i1 %75, label %76, label %82

76:                                               ; preds = %68
  %77 = load i32, i32* %3, align 4
  %78 = sext i32 %77 to i64
  %79 = getelementptr inbounds [501 x i32], [501 x i32]* %11, i64 0, i64 %78
  %80 = load i32, i32* %79, align 4
  %81 = add nsw i32 %80, 1
  store i32 %81, i32* %79, align 4
  store i32 1, i32* %6, align 4
  br label %86

82:                                               ; preds = %68
  br label %83

83:                                               ; preds = %82
  %84 = load i32, i32* %3, align 4
  %85 = add nsw i32 %84, 1
  store i32 %85, i32* %3, align 4
  br label %64

86:                                               ; preds = %76, %64
  %87 = load i32, i32* %6, align 4
  %88 = icmp eq i32 %87, 0
  br i1 %88, label %89, label %103

89:                                               ; preds = %86
  %90 = load i32, i32* %5, align 4
  %91 = sext i32 %90 to i64
  %92 = getelementptr inbounds [501 x [5 x i8]], [501 x [5 x i8]]* %13, i64 0, i64 %91
  %93 = getelementptr inbounds [5 x i8], [5 x i8]* %92, i64 0, i64 0
  %94 = getelementptr inbounds [5 x i8], [5 x i8]* %14, i64 0, i64 0
  %95 = call i8* @strcpy(i8* %93, i8* %94) #6
  %96 = load i32, i32* %5, align 4
  %97 = sext i32 %96 to i64
  %98 = getelementptr inbounds [501 x i32], [501 x i32]* %11, i64 0, i64 %97
  %99 = load i32, i32* %98, align 4
  %100 = add nsw i32 %99, 1
  store i32 %100, i32* %98, align 4
  %101 = load i32, i32* %5, align 4
  %102 = add nsw i32 %101, 1
  store i32 %102, i32* %5, align 4
  br label %103

103:                                              ; preds = %89, %86
  br label %104

104:                                              ; preds = %103
  %105 = load i32, i32* %8, align 4
  %106 = add nsw i32 %105, 1
  store i32 %106, i32* %8, align 4
  br label %23

107:                                              ; preds = %23
  store i32 0, i32* %3, align 4
  br label %108

108:                                              ; preds = %125, %107
  %109 = load i32, i32* %3, align 4
  %110 = load i32, i32* %5, align 4
  %111 = icmp slt i32 %109, %110
  br i1 %111, label %112, label %128

112:                                              ; preds = %108
  %113 = load i32, i32* %3, align 4
  %114 = sext i32 %113 to i64
  %115 = getelementptr inbounds [501 x i32], [501 x i32]* %11, i64 0, i64 %114
  %116 = load i32, i32* %115, align 4
  %117 = load i32, i32* %10, align 4
  %118 = icmp sgt i32 %116, %117
  br i1 %118, label %119, label %124

119:                                              ; preds = %112
  %120 = load i32, i32* %3, align 4
  %121 = sext i32 %120 to i64
  %122 = getelementptr inbounds [501 x i32], [501 x i32]* %11, i64 0, i64 %121
  %123 = load i32, i32* %122, align 4
  store i32 %123, i32* %10, align 4
  br label %124

124:                                              ; preds = %119, %112
  br label %125

125:                                              ; preds = %124
  %126 = load i32, i32* %3, align 4
  %127 = add nsw i32 %126, 1
  store i32 %127, i32* %3, align 4
  br label %108

128:                                              ; preds = %108
  %129 = load i32, i32* %10, align 4
  %130 = icmp eq i32 %129, 1
  br i1 %130, label %131, label %133

131:                                              ; preds = %128
  %132 = call i32 (i8*, ...) @printf(i8* getelementptr inbounds ([3 x i8], [3 x i8]* @.str.1, i64 0, i64 0))
  store i32 0, i32* %1, align 4
  br label %158

133:                                              ; preds = %128
  %134 = load i32, i32* %10, align 4
  %135 = call i32 (i8*, ...) @printf(i8* getelementptr inbounds ([4 x i8], [4 x i8]* @.str, i64 0, i64 0), i32 %134)
  store i32 0, i32* %3, align 4
  br label %136

136:                                              ; preds = %154, %133
  %137 = load i32, i32* %3, align 4
  %138 = load i32, i32* %5, align 4
  %139 = icmp slt i32 %137, %138
  br i1 %139, label %140, label %157

140:                                              ; preds = %136
  %141 = load i32, i32* %3, align 4
  %142 = sext i32 %141 to i64
  %143 = getelementptr inbounds [501 x i32], [501 x i32]* %11, i64 0, i64 %142
  %144 = load i32, i32* %143, align 4
  %145 = load i32, i32* %10, align 4
  %146 = icmp eq i32 %144, %145
  br i1 %146, label %147, label %153

147:                                              ; preds = %140
  %148 = load i32, i32* %3, align 4
  %149 = sext i32 %148 to i64
  %150 = getelementptr inbounds [501 x [5 x i8]], [501 x [5 x i8]]* %13, i64 0, i64 %149
  %151 = getelementptr inbounds [5 x i8], [5 x i8]* %150, i64 0, i64 0
  %152 = call i32 @puts(i8* %151)
  br label %153

153:                                              ; preds = %147, %140
  br label %154

154:                                              ; preds = %153
  %155 = load i32, i32* %3, align 4
  %156 = add nsw i32 %155, 1
  store i32 %156, i32* %3, align 4
  br label %136

157:                                              ; preds = %136
  store i32 0, i32* %1, align 4
  br label %158

158:                                              ; preds = %157, %131
  %159 = load i32, i32* %1, align 4
  ret i32 %159
}

; Function Attrs: argmemonly nounwind willreturn
declare void @llvm.memset.p0i8.i64(i8* nocapture writeonly, i8, i64, i1 immarg) #1

declare dso_local i32 @__isoc99_scanf(i8*, ...) #2

declare dso_local i32 @gets(...) #2

; Function Attrs: nounwind readonly
declare dso_local i64 @strlen(i8*) #3

; Function Attrs: nounwind readonly
declare dso_local i32 @strcmp(i8*, i8*) #3

; Function Attrs: nounwind
declare dso_local i8* @strcpy(i8*, i8*) #4

declare dso_local i32 @printf(i8*, ...) #2

declare dso_local i32 @puts(i8*) #2


!llvm.module.flags = !{!0}
!llvm.ident = !{!1}

!0 = !{i32 1, !"wchar_size", i32 4}
!1 = !{!"clang version 10.0.0-4ubuntu1 "}
